target datalayout = "e-m:e-p270:32:32-p271:32:32-p272:64:64-i64:64-i128:128-f80:128-n8:16:32:64-S128"
target triple = "x86_64-pc-linux-gnu"

; Function Attrs: mustprogress nounwind uwtable
define noundef i32 @_ZN6gmxapi7Version12patchVersionEv() #0 align 2 {
  ret i32 0
}

; Function Attrs: mustprogress nounwind uwtable
define noundef i32 @_ZN6gmxapi7Version12minorVersionEv() #0 align 2 {
  ret i32 4
}

; Function Attrs: mustprogress nounwind uwtable
define noundef i32 @_ZN6gmxapi7Version12majorVersionEv() #0 align 2 {
  ret i32 0
}

; Function Attrs: mustprogress nounwind uwtable
define noundef zeroext i1 @_ZN6gmxapi7Version9isAtLeastEiii(i32 noundef %0, i32 noundef %1, i32 noundef %2) #0 align 2 {
  %4 = alloca i1, align 1
  %5 = alloca i32, align 4
  %6 = alloca i32, align 4
  %7 = alloca i32, align 4
  store i32 %0, ptr %5, align 4
  store i32 %1, ptr %6, align 4
  store i32 %2, ptr %7, align 4
  %8 = call noundef i32 @_ZN6gmxapi7Version12majorVersionEv()
  %9 = load i32, ptr %5, align 4
  %10 = icmp slt i32 %8, %9
  br i1 %10, label %11, label %12

11:                                               ; preds = %3
  store i1 false, ptr %4, align 1
  br label %31

12:                                               ; preds = %3
  %13 = call noundef i32 @_ZN6gmxapi7Version12majorVersionEv()
  %14 = load i32, ptr %5, align 4
  %15 = icmp sgt i32 %13, %14
  br i1 %15, label %16, label %17

16:                                               ; preds = %12
  store i1 true, ptr %4, align 1
  br label %31

17:                                               ; preds = %12
  %18 = call noundef i32 @_ZN6gmxapi7Version12minorVersionEv()
  %19 = load i32, ptr %6, align 4
  %20 = icmp slt i32 %18, %19
  br i1 %20, label %21, label %22

21:                                               ; preds = %17
  store i1 false, ptr %4, align 1
  br label %31

22:                                               ; preds = %17
  %23 = call noundef i32 @_ZN6gmxapi7Version12minorVersionEv()
  %24 = load i32, ptr %6, align 4
  %25 = icmp sgt i32 %23, %24
  br i1 %25, label %26, label %27

26:                                               ; preds = %22
  store i1 true, ptr %4, align 1
  br label %31

27:                                               ; preds = %22
  %28 = call noundef i32 @_ZN6gmxapi7Version12patchVersionEv()
  %29 = load i32, ptr %7, align 4
  %30 = icmp sge i32 %28, %29
  store i1 %30, ptr %4, align 1
  br label %31

31:                                               ; preds = %27, %26, %21, %16, %11
  %32 = load i1, ptr %4, align 1
  ret i1 %32
}