; Function Attrs: mustprogress nofree norecurse nosync nounwind willreturn memory(none) uwtable
define noundef zeroext i1 @_ZN6gmxapi7Version9isAtLeastEiii(i32 noundef %0, i32 noundef %1, i32 noundef %2) local_unnamed_addr #0 align 2 {
  %4 = icmp sgt i32 %0, 0
  br i1 %4, label %11, label %5

5:                                                ; preds = %3
  %6 = icmp slt i32 %0, 0
  br i1 %6, label %11, label %7

7:                                                ; preds = %5
  %8 = icmp sgt i32 %1, 4
  br i1 %8, label %11, label %9

9:                                                ; preds = %7
  %.not = icmp ne i32 %1, 4
  %10 = icmp slt i32 %2, 1
  %spec.select = or i1 %.not, %10
  br label %11

11:                                               ; preds = %9, %7, %5, %3
  %.0 = phi i1 [ false, %3 ], [ true, %5 ], [ false, %7 ], [ %spec.select, %9 ]
  ret i1 %.0
}